(lp0
(lp1
V\u751f\u5316\u5371\u6a5f6
p2
aVhttp://dbpedia.org/resource/Resident_Evil_6
p3
a(lp4
VCapcom
p5
aaVA c t i o n - a d v e n t u r e _ g a m e
p6
aV\u300a\u751f\u5316\u5371\u6a5f6\u300b\uff08\u65e5\u7248\u540d\uff1a\u30d0\u30a4\u30aa\u30cf\u30b6\u30fc\u30c96\uff0cBIOHAZARD 6\uff0c\u82f1\u6587\u7248\u540d\uff1aResident Evil 6\uff0c\u4e2d\u56fd\u5927\u9646\u548c\u9999\u6e2f\u8bd1\u4f5c\u300c\u751f\u5316\u5371\u673a6\u300d\uff0c\u53f0\u7063\u8bd1\u4f5c\u300c\u60e1\u9748\u53e4\u58216\u300d\uff09\u662f\u7531CAPCOM\u4e8e2012\u5e74\u51fa\u54c1\u7684\u96fb\u5b50\u904a\u6232\uff0c\u652f\u63f4\u904a\u6232\u5e73\u53f0\u70baPlayStation 3\u3001PlayStation 4\u3001Xbox 360\u3001Xbox One\u548cWindows\u3002PlayStation 3\u548cXbox 360\u65e5\u672c\u7248\u65bc2012\u5e7410\u67084\u65e5\u767c\u552e\uff0c\u7f8e\u570b\u7248\u65bc2012\u5e7410\u67082\u65e5\u767c\u552e\u3002Windows\u7248\u65bc2013\u5e743\u670822\u65e5\u767c\u552e\u3002PlayStation 4\u548cXbox One\u5168\u7403\u7248\u65bc2016\u5e743\u670829\u65e5\u767c\u552e\u3002
p7
aa(lp8
V\u6700\u7ec8\u5e7b\u60f3X
p9
aVhttp://dbpedia.org/resource/Final_Fantasy_X
p10
a(lp11
VSquare_Enix
p12
aaVR o l e - p l a y i n g _ v i d e o _ g a m e
p13
aV\u300a\u6700\u7ec8\u5e7b\u60f3X\u300b\uff08\u65e5\u8bed\uff1a\u30d5\u30a1\u30a4\u30ca\u30eb\u30d5\u30a1\u30f3\u30bf\u30b8\u30fcX\uff0c\u82f1\u8bed\uff1aFinal Fantasy X\uff09\u662f\u7531\u53f2\u514b\u5a01\u5c14\uff08\u4eca\u53f2\u514b\u5a01\u5c14\u827e\u5c3c\u514b\u65af\uff09\u5f00\u53d1\u5e76\u53d1\u884c\u7684\u7535\u5b50\u89d2\u8272\u626e\u6f14\u6e38\u620f\uff0c\u4e3a\u6700\u7ec8\u5e7b\u60f3\u7cfb\u5217\u7b2c10\u90e8\u6b63\u4f20\u3002\u6e38\u620f\u4e8e2001\u5e74\u5728\u7d22\u5c3c\u7684PlayStation 2\u5e73\u53f0\u53d1\u552e\uff0c2013\u5e74\u4e4b\u540e\u4ee5\u300c\u6700\u7ec8\u5e7b\u60f3X/X-2 HD\u91cd\u5236\u7248\u300d\u540d\u4e49\u8fdb\u884c\u9ad8\u6e05\u5316\u590d\u523b\uff0c\u5148\u540e\u767b\u9646PlayStation 3\u3001PlayStation Vita\u3001PlayStation 4\u548cMicrosoft Windows\u5e73\u53f0\u3002\u6e38\u620f\u6807\u5fd7\u6700\u7ec8\u5e7b\u60f3\u7cfb\u5217\u4ece\u5b8c\u5168\u9884\u6e32\u67d3\u80cc\u666f\u8f6c\u5411\u5168\u4e09\u7ef4\u573a\u666f\uff0c\u4ea6\u6807\u5fd7\u7cfb\u5217\u5f00\u59cb\u542f\u7528\u914d\u97f3\u3002\u300a\u6700\u7ec8\u5e7b\u60f3X\u300b\u4ee5\u201c\u8a08\u7b97\u6642\u9593\u6230\u9b25\u201d\uff08CTB\uff09\u7cfb\u7edf\u53d6\u4ee3\u4e86\u5373\u65f6\u6218\u6597\uff08ATB\uff09\u7cfb\u7edf\uff0c\u5e76\u4f7f\u7528\u540d\u4e3a\u201c\u5e7b\u5149\u7403\u76d8\u201d\u7684\u65b0\u5347\u7ea7\u7cfb\u7edf\u3002 \u6e38\u620f\u8bbe\u5b9a\u4e8e\u5947\u5e7b\u4e16\u754c\u53f2\u5339\u62c9\uff0c\u8bb2\u8ff0\u4e00\u884c\u5192\u9669\u8005\u4e3a\u51fb\u8d25\u7834\u574f\u6027\u602a\u7269\u201c\u8f9b\u201d\u800c\u8e0f\u4e0a\u65c5\u7a0b\u7684\u6545\u4e8b\u3002\u73a9\u5bb6\u89d2\u8272\u63d0\u8fbe\u662f\u6c34\u9b25\u7403\u660e\u661f\uff0c\u5728\u5bb6\u4e61\u672d\u7eb3\u5c14\u574e\u5fb7\u88ab\u8f9b\u6bc1\u706d\u540e\u53d1\u73b0\u81ea\u5df1\u8eab\u5904\u53f2\u5339\u62c9\u3002\u5728\u5230\u8fbe\u53f2\u5339\u62c9\u540e\u4e0d\u4e45\uff0c\u63d0\u8fbe\u52a0\u5165\u4e86\u53ec\u5524\u58eb\u5c24\u5a1c\u671d\u5723\u5e76\u6d88\u706d\u8f9b\u7684\u961f\u4f0d\u3002 \u300a\u6700\u7ec8\u5e7b\u60f3X\u300b\u4ece1999\u5e74\u5f00\u59cb\u5f00\u53d1\uff0c\u9884\u7b97\u8d85\u8fc73,230\u4e07\u7f8e\u5143\uff0c\u56e2\u961f\u903e\u767e\u4eba\u3002\u672c\u4f5c\u662f\u6b63\u4f20\u4e2d\u9996\u6b3e\u975e\u690d\u677e\u4f38\u592b\u72ec\u7acb\u914d\u4e50\u7684\u6e38\u620f\uff0c\u690d\u677e\u9009\u62e9\u6ee8\u6da1\u6b63\u5fd7\u548c\u4ef2\u91ce\u987a\u4e5f\u5408\u4f5c\u914d\u4e50\u3002\u300a\u6700\u7ec8\u5e7b\u60f3X\u300b\u83b7\u5f97\u8bc4\u8bba\u548c\u5546\u4e1a\u6210\u529f\uff0c\u5168\u7403\u9500\u91cf\u8d85\u8fc7660\u4e07\u3002\u7eed\u4f5c\u300a\u6700\u7ec8\u5e7b\u60f3X-2\u300b\u4e8e2003\u5e743\u6708\u53d1\u552e\uff0c\u662f\u9996\u6b3e\u6700\u7ec8\u5e7b\u60f3\u6e38\u620f\u540e\u4f20\u3002
p14
aa(lp15
V\u6700\u7ec8\u5e7b\u60f3\u6218\u7565\u7248
p16
aVhttp://dbpedia.org/resource/Final_Fantasy_Tactics
p17
a(lp18
VSquare_(company)
p19
aaVT a c t i c a l _ r o l e - p l a y i n g _ g a m e
p20
aV\u300a\u6700\u7ec8\u5e7b\u60f3\u6218\u7565\u7248\u300b\uff08\u82f1\u8a9e\uff1aFinal Fantasy Tactics\uff0c\u65e5\u8a9e\uff1a\u30d5\u30a1\u30a4\u30ca\u30eb\u30d5\u30a1\u30f3\u30bf\u30b8\u30fc\u30bf\u30af\u30c6\u30a3\u30af\u30b9\uff0c\u7c21\u5beb\u70baFFT\u6216FFTactics\uff09\u662f\u4e00\u6b3e\u7531\u65e5\u672c\u96fb\u8996\u904a\u6232\u516c\u53f8\u2500\u2500\u53f2\u514b\u5a01\u723e\uff08\u73fe\u5728\u7684\u53f2\u514b\u5a01\u723e\u827e\u5c3c\u514b\u65af\uff09\u958b\u767c\u53ca\u767c\u884c\u7684\u6230\u68cb\u578b\u89d2\u8272\u626e\u6f14\u904a\u6232\u3002FFT\u662f\u53f2\u514b\u5a01\u723e\u5728\u9032\u5165PlayStation\u6642\u4ee3\u6642\u5f9e\u5176\u4ed6\u5c0d\u624b\u4e2d\u5927\u624b\u62db\u652c\u4f86\u7684\u677e\u91ce\u6cf0\u5df1\u6240\u9818\u5c0e\u958b\u767c\u7684\u7b2c\u4e00\u6b3e\u904a\u6232\uff0c\u8207\u4ed6\u7684\u524d\u4f5c\u2500\u2500\u300a\u7687\u5bb6\u9a0e\u58eb\u5718\u4e8c\u300b\u6709\u8457\u8a31\u591a\u5171\u901a\u7684\u8a2d\u8a08\uff0c\u5305\u62ec\u7b49\u91cf\u7684\u6b63\u65b9\u683c\u6230\u68cb\u6230\u5834\u3001\u89d2\u8272\u5132\u6642\u884c\u52d5\u9806\u5e8f\uff08\u53cd\u56de\u5408\u5236\uff09\u3001\u4e0d\u5207\u63db\u653b\u64ca\u756b\u9762\u53ca\u5927\u5730\u5716\u754c\u9762\u7b49\u7b49\u3002\u4f46\u53c8\u6709\u8457\u8a31\u591a\u7368\u81ea\u7684\u8a2d\u8a08\u4f8b\u5982\u62c9\u5f13\u5132\u529b\uff0f\u8a60\u5531\u5492\u8a9e\u6642\u9593\u3001\u591a\u905420\u7a2e\u6230\u9b25\u8077\u696d\uff0c\u5404\u8077\u696d\u8c50\u5bcc\u7684\u6280\u80fd\u53ca\u5176\u81ea\u7531\u7d44\u5408\u6027\u3001\u6230\u8853\u6027\u3002FFT\u4ea6\u662f\u65e5\u672c\u696d\u754c\u4e2d\u5c11\u6709\u80fd\u7a81\u7834\u4e00\u767e\u842c\u92b7\u91cf\u7684\u6230\u68cb\u904a\u6232
p21
aa(lp22
V\u6012 (\u6e38\u620f)
p23
aVhttp://dbpedia.org/resource/Ikari_Warriors
p24
a(lp25
VSNK_Playmore
p26
aaVR u n _ a n d _ g u n _ ( v i d e o _ g a m e )
p27
aV\u300a\u6012\u300b\uff08\u65e5\u7248\u540d\uff1a\u6012\uff0c\u82f1\u6587\u7248\u540d\uff1aIkari Warriors\uff09\u662f\u4e00\u6b3e\u7531SNK\u5236\u4f5c\u7684\u7e31\u5411\u6372\u8ef8\u6e05\u7248\u5c04\u51fb\u6e38\u620f\u3002 \u672c\u6e38\u620f\u9996\u5148\u5728\u8857\u673a\u4e0a\u53d1\u884c\uff0c\u540e\u79fb\u690d\u81f3\u5176\u4ed6\u5e73\u53f0\u3002\u672c\u6e38\u620f\u4e8e1986\u5e7411\u6708\u5728\u65e5\u672c\u5730\u533aFC\u6e38\u620f\u673a\u53d1\u884c\uff0c1987\u5e746\u6708\u5728\u5317\u7f8e\u5730\u533a\u53d1\u884c\u3002 \u6e38\u620f\u7684\u4e3b\u89d2\u4e3a\u4e0a\u6821Ralf Jones\u548c\u5c11\u5c09Clark Still\u3002\u4ed6\u4eec\u4e4b\u540e\u5728\u62f3\u7687\u7cfb\u5217\u4e2d\u767b\u573a\u3002\u672c\u6e38\u620f\u4e3b\u8981\u53d9\u8ff0\u4ed6\u4eec\u4e0e\u654c\u4eba\u4f5c\u6218\u3002\u4ed6\u4eec\u5fc5\u987b\u627e\u5230\u540d\u4e3a\u6012\u7684\u6751\u5e84\u3002\u6e38\u620f\u4e2d\uff0c\u654c\u4eba\u5305\u62ec\u5766\u514b\u3001\u6218\u58eb\u4ee5\u53ca\u76f4\u5347\u98de\u673a\u3002
p28
aa(lp29
V\u6700\u7ec8\u5e7b\u60f3II
p30
aVhttp://dbpedia.org/resource/Final_Fantasy_II
p31
a(lp32
VSquare_(company)
p33
aaVR o l e - p l a y i n g _ v i d e o _ g a m e
p34
aV\u300a\u6700\u7d42\u5e7b\u60f3II\u300b\uff08\u65e5\u8bed\uff1a\u30d5\u30a1\u30a4\u30ca\u30eb\u30d5\u30a1\u30f3\u30bf\u30b8\u30fcII\uff0c\u82f1\u8bed\uff1aFianl Fantasy II\uff09\u662f\u7531\u53f2\u514b\u5a01\u723e\u958b\u767c\uff0c\u4e26\u65bc1988\u5e74\u5728\u4efb\u5929\u5802FC\u904a\u6232\u6a5f\u5e73\u81fa\u767c\u884c\u7684\u5947\u5e7b\u96fb\u5b50\u89d2\u8272\u626e\u6f14\u904a\u6232\uff0c\u904a\u6232\u662f\u6700\u7d42\u5e7b\u60f3\u7cfb\u5217\u7684\u7b2c\u4e8c\u90e8\u4f5c\u54c1\u3002\u904a\u6232\u65bc\u5f8c\u4f86\u591a\u6b21\u91cd\u88fd\uff0c\u91cd\u88fd\u5e73\u81fa\u5305\u62ecWonderSwan Color\u3001\u7d22\u5c3cPlayStation\u3001Game Boy Color\u3001PlayStation Portable\u4ee5\u53ca\u591a\u500b\u884c\u52d5\u96fb\u8a71\u8207\u667a\u6167\u578b\u624b\u6a5f\u3002\u7531\u65bc\u300a\u6700\u7d42\u5e7b\u60f3II\u300b\u548c\u300a\u6700\u7d42\u5e7b\u60f3III\u300b\u90fd\u6c92\u6709\u5728\u65e5\u672c\u4ee5\u5916\u9996\u767c\uff0c\u70ba\u907f\u514d\u5317\u7f8e\u73a9\u5bb6\u56f0\u60d1\uff0c\u300a\u6700\u7d42\u5e7b\u60f3IV\u300b\u5728\u5317\u7f8e\u767c\u552e\u6642\u4ee5\u201c\u6700\u7d42\u5e7b\u60f3II\u201d\u70ba\u984c\u3002\u904a\u6232\u6700\u65b0\u7684\u91cd\u88fd\u7248\u662fiOS\u548cAndroid\u7248\uff0c\u5176\u5206\u5225\u65bc2010\u5e74\u548c2012\u5e74\u5728\u5168\u7403\u767c\u884c\u3002 \u904a\u6232\u6545\u4e8b\u570d\u7e5e\u8457\u56db\u500b\u7236\u6bcd\u88ab\u5e15\u62c9\u7f8e\u742a\u4e9e\u5e1d\u570b\u8ecd\u968a\u6bba\u5bb3\u7684\u5e74\u8f15\u4eba\u7684\u6545\u4e8b\u3002\u56db\u4eba\u4e2d\u7684\u4e09\u4eba\u52a0\u5165\u4e86\u5e1d\u570b\u53cd\u6297\u8ecd\uff0c\u5b8c\u6210\u4efb\u52d9\u4f86\u7372\u5f97\u65b0\u9b54\u6cd5\u548c\u6b66\u5668\u3001\u6bc0\u58de\u6575\u4eba\u7684\u8d85\u7d1a\u6b66\u5668\u3001\u4e26\u71df\u6551\u9818\u5c0e\u8005\u3002\u5728\u64ca\u6557\u4e86\u5e1d\u570b\u548c\u7687\u5e1d\u5f8c\uff0c\u4e09\u4eba\u7d44\u627e\u5230\u4e86\u6210\u70ba\u9ed1\u9a0e\u58eb\u7684\u7b2c\u56db\u500b\u5e74\u8f15\u4eba\uff0c\u4ed6\u53d6\u4ee3\u4e86\u4e4b\u524d\u7684\u7687\u5e1d\u4e26\u6e96\u5099\u653b\u64ca\u53cd\u6297\u8ecd\u3002\u5728\u8207\u4ed6\u5c0d\u5cd9\u6642\uff0c\u91cd\u751f\u6210\u70ba\u60e1\u9b54\u7684\u7687\u5e1d\u51fa\u73fe\uff0c\u4e26\u6e96\u5099\u6bc0\u6ec5\u4e16\u754c\u3002\u7136\u800c\u56db\u540d\u4e3b\u89d2\u6c7a\u5b9a\u5408\u529b\u6d88\u6ec5\u4ed6\uff0c\u4e26\u6700\u7d42\u5728\u4ed6\u7684\u9b54\u6cd5\u57ce\u5821\u4e2d\u6d88\u6ec5\u4e86\u4ed6\u3002Game Boy Color\u7248\u5728\u904a\u6232\u5b8c\u6210\u5f8c\u589e\u52a0\u4e86\u5287\u60c5\uff0c\u8b1b\u8ff0\u4e86\u5e7e\u500b\u5728\u904a\u6232\u4e2d\u72a7\u7272\u7684\u914d\u89d2\u6253\u6557\u4e92\u751f\u7687\u5e1d\u7684\u6545\u4e8b\u3002 \u8a31\u591a\u300a\u6700\u7d42\u5e7b\u60f3II\u300b\u5f15\u5165\u7684\u5143\u7d20\u5f8c\u4f86\u6210\u70ba\u7cfb\u5217\u7684\u91cd\u8981\u8981\u7d20\uff0c\u5982\u9678\u884c\u9ce5\u548c\u5e38\u8bbe\u89d2\u8272\u5e2d\u5fb7\u3002\u904a\u6232\u6c92\u6709\u4f7f\u7528\u7cfb\u5217\u524d\u4f5c\u548c\u7e8c\u4f5c\u4e2d\u50b3\u7d71\u7684\u7d93\u9a57\u503c\u5347\u7d1a\u7cfb\u7d71\uff1b\u4ee3\u4e4b\u7684\u662f\u80fd\u529b\u503c\u56e0\u89d2\u8272\u4f7f\u7528\u8207\u7fd2\u5f97\u5167\u5bb9\u800c\u589e\u9577\u7684\u719f\u7df4\u5ea6\u7cfb\u7d71\u3002\u96d6\u7136\u904a\u6232\u662f\u300a\u6700\u7d42\u5e7b\u60f3\u300b\u7684\u7e8c\u4f5c\uff0c\u4f46\u4e26\u6c92\u6709\u51fa\u73fe\u524d\u4f5c\u4e2d\u7684\u89d2\u8272\u8207\u5730\u9ede\u3002\u300a\u6700\u7d42\u5e7b\u60f3II\u300b\u5728\u767c\u552e\u7576\u6642\u5e7e\u4e4e\u6c92\u6709\u65e5\u672c\u5916\u8a55\u8ad6\u8005\u6ce8\u610f\uff0c\u4f46\u4e4b\u5f8c\u7684\u91cd\u88fd\u7248\u5247\u7372\u5f97\u6b63\u9762\u8a55\u50f9\u3002
p35
aa.